; Function Attrs: mustprogress uwtable
define hidden void @_ZN4cvc58internal6theory2fp38FloatingPointToFPFloatingPointTypeRule14preComputeTypeEPNS0_11NodeManagerENS0_12NodeTemplateILb0EEE(ptr dead_on_unwind noalias writable sret(%"class.cvc5::internal::TypeNode") align 8 %0, ptr noundef %1, ptr noundef nonnull %2) local_unnamed_addr #3 align 2 personality ptr @__gxx_personality_v0 {
  %4 = alloca %"class.cvc5::internal::FloatingPointToFPFloatingPoint", align 4
  %5 = alloca %"class.cvc5::internal::NodeTemplate.39", align 8
  %6 = alloca %"class.cvc5::internal::FloatingPointSize", align 4
  call void @llvm.lifetime.start.p0(i64 8, ptr nonnull %4) #14
  call void @llvm.lifetime.start.p0(i64 8, ptr nonnull %5) #14
  call void @_ZNK4cvc58internal12NodeTemplateILb0EE11getOperatorEv(ptr dead_on_unwind nonnull writable sret(%"class.cvc5::internal::NodeTemplate.39") align 8 %5, ptr noundef nonnull align 8 dereferenceable(8) %2)
  %7 = load ptr, ptr %5, align 8, !tbaa !164
  %8 = invoke noundef nonnull align 4 dereferenceable(8) ptr @_ZNK4cvc58internal4expr9NodeValue8getConstINS0_30FloatingPointToFPFloatingPointEEERKT_v(ptr noundef nonnull align 8 dereferenceable(24) %7)
          to label %_ZNK4cvc58internal12NodeTemplateILb1EE8getConstINS0_30FloatingPointToFPFloatingPointEEERKT_v.exit unwind label %22

_ZNK4cvc58internal12NodeTemplateILb1EE8getConstINS0_30FloatingPointToFPFloatingPointEEERKT_v.exit: ; preds = %3
  invoke void @_ZN4cvc58internal17FloatingPointSizeC1ERKS1_(ptr noundef nonnull align 4 dereferenceable(8) %4, ptr noundef nonnull align 4 dereferenceable(8) %8)
          to label %_ZN4cvc58internal30FloatingPointToFPFloatingPointC2ERKS1_.exit unwind label %22

_ZN4cvc58internal30FloatingPointToFPFloatingPointC2ERKS1_.exit: ; preds = %_ZNK4cvc58internal12NodeTemplateILb1EE8getConstINS0_30FloatingPointToFPFloatingPointEEERKT_v.exit
  %9 = load ptr, ptr %5, align 8, !tbaa !164
  %10 = load i64, ptr %9, align 8
  %11 = and i64 %10, 1152920405095219200
  %.not.i.i = icmp eq i64 %11, 1152920405095219200
  br i1 %.not.i.i, label %_ZN4cvc58internal12NodeTemplateILb1EED2Ev.exit, label %12, !prof !15

12:                                               ; preds = %_ZN4cvc58internal30FloatingPointToFPFloatingPointC2ERKS1_.exit
  %13 = add i64 %10, 1152920405095219200
  %14 = and i64 %13, 1152920405095219200
  %15 = and i64 %10, -1152920405095219201
  %16 = or disjoint i64 %14, %15
  store i64 %16, ptr %9, align 8
  %17 = icmp eq i64 %14, 0
  br i1 %17, label %18, label %_ZN4cvc58internal12NodeTemplateILb1EED2Ev.exit, !prof !15

18:                                               ; preds = %12
  invoke void @_ZN4cvc58internal4expr9NodeValue15markForDeletionEv(ptr noundef nonnull align 8 dereferenceable(24) %9)
          to label %_ZN4cvc58internal12NodeTemplateILb1EED2Ev.exit unwind label %19

19:                                               ; preds = %18
  %20 = landingpad { ptr, i32 }
          catch ptr null
  %21 = extractvalue { ptr, i32 } %20, 0
  call void @__clang_call_terminate(ptr %21) #15
  unreachable

_ZN4cvc58internal12NodeTemplateILb1EED2Ev.exit:   ; preds = %_ZN4cvc58internal30FloatingPointToFPFloatingPointC2ERKS1_.exit, %12, %18
  call void @llvm.lifetime.end.p0(i64 8, ptr nonnull %5) #14
  call void @_ZN4cvc58internal17FloatingPointSizeC1ERKS1_(ptr noundef nonnull align 4 dereferenceable(8) %6, ptr noundef nonnull align 4 dereferenceable(8) %4)
  call void @_ZN4cvc58internal11NodeManager19mkFloatingPointTypeENS0_17FloatingPointSizeE(ptr dead_on_unwind writable sret(%"class.cvc5::internal::TypeNode") align 8 %0, ptr noundef nonnull align 8 dereferenceable(3560) %1, ptr noundef nonnull %6)
  call void @llvm.lifetime.end.p0(i64 8, ptr nonnull %4) #14
  ret void

22:                                               ; preds = %_ZNK4cvc58internal12NodeTemplateILb1EE8getConstINS0_30FloatingPointToFPFloatingPointEEERKT_v.exit, %3
  %23 = landingpad { ptr, i32 }
          cleanup
  call void @_ZN4cvc58internal12NodeTemplateILb1EED2Ev(ptr noundef nonnull align 8 dereferenceable(8) %5) #14
  call void @llvm.lifetime.end.p0(i64 8, ptr nonnull %5) #14
  call void @llvm.lifetime.end.p0(i64 8, ptr nonnull %4) #14
  resume { ptr, i32 } %23
}